target datalayout = "e-m:e-p270:32:32-p271:32:32-p272:64:64-i64:64-i128:128-f80:128-n8:16:32:64-S128"
target triple = "x86_64-pc-linux-gnu"

%struct.giop_module_key = type { ptr }

; Function Attrs: nounwind null_pointer_is_valid sspstrong uwtable
define internal i32 @giop_hash_module_hash(ptr noundef %0) #5 {
  %2 = alloca ptr, align 8
  %3 = alloca i32, align 4
  %4 = alloca i32, align 4
  %5 = alloca i32, align 4
  %6 = alloca ptr, align 8
  store ptr %0, ptr %2, align 8
  call void @llvm.lifetime.start.p0(i64 4, ptr %3) #14
  call void @llvm.lifetime.start.p0(i64 4, ptr %4) #14
  call void @llvm.lifetime.start.p0(i64 4, ptr %5) #14
  store i32 0, ptr %5, align 4
  call void @llvm.lifetime.start.p0(i64 8, ptr %6) #14
  %7 = load ptr, ptr %2, align 8
  store ptr %7, ptr %6, align 8
  %8 = load ptr, ptr %6, align 8
  %9 = getelementptr inbounds nuw %struct.giop_module_key, ptr %8, i32 0, i32 0
  %10 = load ptr, ptr %9, align 8
  %11 = call i64 @strlen(ptr noundef %10) #16
  %12 = trunc i64 %11 to i32
  store i32 %12, ptr %4, align 4
  store i32 0, ptr %3, align 4
  br label %13

13:                                               ; preds = %28, %1
  %14 = load i32, ptr %3, align 4
  %15 = load i32, ptr %4, align 4
  %16 = icmp slt i32 %14, %15
  br i1 %16, label %17, label %31

17:                                               ; preds = %13
  %18 = load ptr, ptr %6, align 8
  %19 = getelementptr inbounds nuw %struct.giop_module_key, ptr %18, i32 0, i32 0
  %20 = load ptr, ptr %19, align 8
  %21 = load i32, ptr %3, align 4
  %22 = sext i32 %21 to i64
  %23 = getelementptr i8, ptr %20, i64 %22
  %24 = load i8, ptr %23, align 1
  %25 = zext i8 %24 to i32
  %26 = load i32, ptr %5, align 4
  %27 = add i32 %26, %25
  store i32 %27, ptr %5, align 4
  br label %28

28:                                               ; preds = %17
  %29 = load i32, ptr %3, align 4
  %30 = add i32 %29, 1
  store i32 %30, ptr %3, align 4
  br label %13, !llvm.loop !27

31:                                               ; preds = %13
  %32 = load i32, ptr %5, align 4
  call void @llvm.lifetime.end.p0(i64 8, ptr %6) #14
  call void @llvm.lifetime.end.p0(i64 4, ptr %5) #14
  call void @llvm.lifetime.end.p0(i64 4, ptr %4) #14
  call void @llvm.lifetime.end.p0(i64 4, ptr %3) #14
  ret i32 %32
}